; ModuleID = 'source-C-CXX/25/629.cpp'
source_filename = "source-C-CXX/25/629.cpp"
target datalayout = "e-m:e-p270:32:32-p271:32:32-p272:64:64-i64:64-f80:128-n8:16:32:64-S128"
target triple = "x86_64-pc-linux-gnu"

%"class.std::ios_base::Init" = type { i8 }
%"class.std::basic_istream" = type { i32 (...)**, i64, %"class.std::basic_ios" }
%"class.std::basic_ios" = type { %"class.std::ios_base", %"class.std::basic_ostream"*, i8, i8, %"class.std::basic_streambuf"*, %"class.std::ctype"*, %"class.std::num_put"*, %"class.std::num_get"* }
%"class.std::ios_base" = type { i32 (...)**, i64, i64, i32, i32, i32, %"struct.std::ios_base::_Callback_list"*, %"struct.std::ios_base::_Words", [8 x %"struct.std::ios_base::_Words"], i32, %"struct.std::ios_base::_Words"*, %"class.std::locale" }
%"struct.std::ios_base::_Callback_list" = type { %"struct.std::ios_base::_Callback_list"*, void (i32, %"class.std::ios_base"*, i32)*, i32, i32 }
%"struct.std::ios_base::_Words" = type { i8*, i64 }
%"class.std::locale" = type { %"class.std::locale::_Impl"* }
%"class.std::locale::_Impl" = type { i32, %"class.std::locale::facet"**, i64, %"class.std::locale::facet"**, i8** }
%"class.std::locale::facet" = type <{ i32 (...)**, i32, [4 x i8] }>
%"class.std::basic_ostream" = type { i32 (...)**, %"class.std::basic_ios" }
%"class.std::basic_streambuf" = type { i32 (...)**, i8*, i8*, i8*, i8*, i8*, i8*, %"class.std::locale" }
%"class.std::ctype" = type <{ %"class.std::locale::facet.base", [4 x i8], %struct.__locale_struct*, i8, [7 x i8], i32*, i32*, i16*, i8, [256 x i8], [256 x i8], i8, [6 x i8] }>
%"class.std::locale::facet.base" = type <{ i32 (...)**, i32 }>
%struct.__locale_struct = type { [13 x %struct.__locale_data*], i16*, i32*, i32*, [13 x i8*] }
%struct.__locale_data = type opaque
%"class.std::num_put" = type { %"class.std::locale::facet.base", [4 x i8] }
%"class.std::num_get" = type { %"class.std::locale::facet.base", [4 x i8] }

@_ZStL8__ioinit = internal global %"class.std::ios_base::Init" zeroinitializer, align 1
@__dso_handle = external hidden global i8
@_ZSt3cin = external global %"class.std::basic_istream", align 8
@_ZSt4cout = external global %"class.std::basic_ostream", align 8
@llvm.global_ctors = appending global [1 x { i32, void ()*, i8* }] [{ i32, void ()*, i8* } { i32 65535, void ()* @_GLOBAL__sub_I_629.cpp, i8* null }]

declare void @_ZNSt8ios_base4InitC1Ev(%"class.std::ios_base::Init"* nonnull align 1 dereferenceable(1)) unnamed_addr #0

; Function Attrs: nounwind
declare void @_ZNSt8ios_base4InitD1Ev(%"class.std::ios_base::Init"* nonnull align 1 dereferenceable(1)) unnamed_addr #1

; Function Attrs: nofree nounwind
declare i32 @__cxa_atexit(void (i8*)*, i8*, i8*) local_unnamed_addr #2

; Function Attrs: mustprogress norecurse sspstrong uwtable
define dso_local i32 @main() local_unnamed_addr #3 {
  %1 = alloca i8, align 1
  %2 = alloca [101 x i8], align 16
  %3 = getelementptr inbounds [101 x i8], [101 x i8]* %2, i64 0, i64 0
  call void @llvm.lifetime.start.p0i8(i64 101, i8* nonnull %3) #8
  %4 = load i8*, i8** bitcast (%"class.std::basic_istream"* @_ZSt3cin to i8**), align 8, !tbaa !5
  %5 = getelementptr i8, i8* %4, i64 -24
  %6 = bitcast i8* %5 to i64*
  %7 = load i64, i64* %6, align 8
  %8 = add nsw i64 %7, 240
  %9 = getelementptr inbounds i8, i8* bitcast (%"class.std::basic_istream"* @_ZSt3cin to i8*), i64 %8
  %10 = bitcast i8* %9 to %"class.std::ctype"**
  %11 = load %"class.std::ctype"*, %"class.std::ctype"** %10, align 8, !tbaa !8
  %12 = icmp eq %"class.std::ctype"* %11, null
  br i1 %12, label %13, label %14

13:                                               ; preds = %0
  tail call void @_ZSt16__throw_bad_castv() #9
  unreachable

14:                                               ; preds = %0
  %15 = getelementptr inbounds %"class.std::ctype", %"class.std::ctype"* %11, i64 0, i32 8
  %16 = load i8, i8* %15, align 8, !tbaa !13
  %17 = icmp eq i8 %16, 0
  br i1 %17, label %21, label %18

18:                                               ; preds = %14
  %19 = getelementptr inbounds %"class.std::ctype", %"class.std::ctype"* %11, i64 0, i32 9, i64 10
  %20 = load i8, i8* %19, align 1, !tbaa !15
  br label %27

21:                                               ; preds = %14
  tail call void @_ZNKSt5ctypeIcE13_M_widen_initEv(%"class.std::ctype"* nonnull align 8 dereferenceable(570) %11)
  %22 = bitcast %"class.std::ctype"* %11 to i8 (%"class.std::ctype"*, i8)***
  %23 = load i8 (%"class.std::ctype"*, i8)**, i8 (%"class.std::ctype"*, i8)*** %22, align 8, !tbaa !5
  %24 = getelementptr inbounds i8 (%"class.std::ctype"*, i8)*, i8 (%"class.std::ctype"*, i8)** %23, i64 6
  %25 = load i8 (%"class.std::ctype"*, i8)*, i8 (%"class.std::ctype"*, i8)** %24, align 8
  %26 = tail call signext i8 %25(%"class.std::ctype"* nonnull align 8 dereferenceable(570) %11, i8 signext 10)
  br label %27

27:                                               ; preds = %18, %21
  %28 = phi i8 [ %20, %18 ], [ %26, %21 ]
  %29 = call nonnull align 8 dereferenceable(16) %"class.std::basic_istream"* @_ZNSi7getlineEPclc(%"class.std::basic_istream"* nonnull align 8 dereferenceable(16) @_ZSt3cin, i8* nonnull %3, i64 101, i8 signext %28)
  %30 = call i64 @strlen(i8* noundef nonnull %3) #10
  %31 = trunc i64 %30 to i32
  %32 = icmp sgt i32 %31, 1
  br i1 %32, label %38, label %33

33:                                               ; preds = %153, %27
  %34 = phi i32 [ %31, %27 ], [ %154, %153 ]
  %35 = icmp sgt i32 %34, 0
  br i1 %35, label %36, label %165

36:                                               ; preds = %33
  %37 = zext i32 %34 to i64
  br label %158

38:                                               ; preds = %27, %153
  %39 = phi i32 [ %156, %153 ], [ 1, %27 ]
  %40 = phi i32 [ %154, %153 ], [ %31, %27 ]
  %41 = sext i32 %39 to i64
  %42 = getelementptr inbounds [101 x i8], [101 x i8]* %2, i64 0, i64 %41
  %43 = load i8, i8* %42, align 1, !tbaa !15
  %44 = icmp eq i8 %43, 32
  br i1 %44, label %45, label %153

45:                                               ; preds = %38
  %46 = add nsw i32 %39, -1
  %47 = sext i32 %46 to i64
  %48 = getelementptr inbounds [101 x i8], [101 x i8]* %2, i64 0, i64 %47
  %49 = load i8, i8* %48, align 1, !tbaa !15
  %50 = icmp eq i8 %49, 32
  br i1 %50, label %51, label %153

51:                                               ; preds = %45
  %52 = add nsw i32 %40, -2
  %53 = icmp sgt i32 %39, %52
  %54 = add nsw i32 %40, -1
  br i1 %53, label %153, label %55

55:                                               ; preds = %51
  %56 = sext i32 %54 to i64
  %57 = sub nsw i64 %56, %41
  %58 = icmp ult i64 %57, 8
  br i1 %58, label %144, label %59

59:                                               ; preds = %55
  %60 = icmp ult i64 %57, 32
  br i1 %60, label %123, label %61

61:                                               ; preds = %59
  %62 = and i64 %57, -32
  %63 = add nsw i64 %62, -32
  %64 = lshr exact i64 %63, 5
  %65 = add nuw nsw i64 %64, 1
  %66 = and i64 %65, 1
  %67 = icmp eq i64 %63, 0
  br i1 %67, label %101, label %68

68:                                               ; preds = %61
  %69 = and i64 %65, 1152921504606846974
  br label %70

70:                                               ; preds = %70, %68
  %71 = phi i64 [ 0, %68 ], [ %98, %70 ]
  %72 = phi i64 [ %69, %68 ], [ %99, %70 ]
  %73 = add i64 %71, %41
  %74 = add nsw i64 %73, 1
  %75 = getelementptr inbounds [101 x i8], [101 x i8]* %2, i64 0, i64 %74
  %76 = bitcast i8* %75 to <16 x i8>*
  %77 = load <16 x i8>, <16 x i8>* %76, align 1, !tbaa !15
  %78 = getelementptr inbounds i8, i8* %75, i64 16
  %79 = bitcast i8* %78 to <16 x i8>*
  %80 = load <16 x i8>, <16 x i8>* %79, align 1, !tbaa !15
  %81 = getelementptr inbounds [101 x i8], [101 x i8]* %2, i64 0, i64 %73
  %82 = bitcast i8* %81 to <16 x i8>*
  store <16 x i8> %77, <16 x i8>* %82, align 1, !tbaa !15
  %83 = getelementptr inbounds i8, i8* %81, i64 16
  %84 = bitcast i8* %83 to <16 x i8>*
  store <16 x i8> %80, <16 x i8>* %84, align 1, !tbaa !15
  %85 = or i64 %71, 32
  %86 = add i64 %85, %41
  %87 = add nsw i64 %86, 1
  %88 = getelementptr inbounds [101 x i8], [101 x i8]* %2, i64 0, i64 %87
  %89 = bitcast i8* %88 to <16 x i8>*
  %90 = load <16 x i8>, <16 x i8>* %89, align 1, !tbaa !15
  %91 = getelementptr inbounds i8, i8* %88, i64 16
  %92 = bitcast i8* %91 to <16 x i8>*
  %93 = load <16 x i8>, <16 x i8>* %92, align 1, !tbaa !15
  %94 = getelementptr inbounds [101 x i8], [101 x i8]* %2, i64 0, i64 %86
  %95 = bitcast i8* %94 to <16 x i8>*
  store <16 x i8> %90, <16 x i8>* %95, align 1, !tbaa !15
  %96 = getelementptr inbounds i8, i8* %94, i64 16
  %97 = bitcast i8* %96 to <16 x i8>*
  store <16 x i8> %93, <16 x i8>* %97, align 1, !tbaa !15
  %98 = add nuw i64 %71, 64
  %99 = add i64 %72, -2
  %100 = icmp eq i64 %99, 0
  br i1 %100, label %101, label %70, !llvm.loop !16

101:                                              ; preds = %70, %61
  %102 = phi i64 [ 0, %61 ], [ %98, %70 ]
  %103 = icmp eq i64 %66, 0
  br i1 %103, label %117, label %104

104:                                              ; preds = %101
  %105 = add i64 %102, %41
  %106 = add nsw i64 %105, 1
  %107 = getelementptr inbounds [101 x i8], [101 x i8]* %2, i64 0, i64 %106
  %108 = bitcast i8* %107 to <16 x i8>*
  %109 = load <16 x i8>, <16 x i8>* %108, align 1, !tbaa !15
  %110 = getelementptr inbounds i8, i8* %107, i64 16
  %111 = bitcast i8* %110 to <16 x i8>*
  %112 = load <16 x i8>, <16 x i8>* %111, align 1, !tbaa !15
  %113 = getelementptr inbounds [101 x i8], [101 x i8]* %2, i64 0, i64 %105
  %114 = bitcast i8* %113 to <16 x i8>*
  store <16 x i8> %109, <16 x i8>* %114, align 1, !tbaa !15
  %115 = getelementptr inbounds i8, i8* %113, i64 16
  %116 = bitcast i8* %115 to <16 x i8>*
  store <16 x i8> %112, <16 x i8>* %116, align 1, !tbaa !15
  br label %117

117:                                              ; preds = %101, %104
  %118 = icmp eq i64 %57, %62
  br i1 %118, label %153, label %119

119:                                              ; preds = %117
  %120 = add nsw i64 %62, %41
  %121 = and i64 %57, 24
  %122 = icmp eq i64 %121, 0
  br i1 %122, label %144, label %123

123:                                              ; preds = %59, %119
  %124 = phi i64 [ %62, %119 ], [ 0, %59 ]
  %125 = add i32 %40, -1
  %126 = sext i32 %125 to i64
  %127 = sext i32 %39 to i64
  %128 = sub nsw i64 %126, %127
  %129 = and i64 %128, -8
  %130 = add nsw i64 %129, %41
  br label %131

131:                                              ; preds = %131, %123
  %132 = phi i64 [ %124, %123 ], [ %140, %131 ]
  %133 = add i64 %132, %41
  %134 = add nsw i64 %133, 1
  %135 = getelementptr inbounds [101 x i8], [101 x i8]* %2, i64 0, i64 %134
  %136 = bitcast i8* %135 to <8 x i8>*
  %137 = load <8 x i8>, <8 x i8>* %136, align 1, !tbaa !15
  %138 = getelementptr inbounds [101 x i8], [101 x i8]* %2, i64 0, i64 %133
  %139 = bitcast i8* %138 to <8 x i8>*
  store <8 x i8> %137, <8 x i8>* %139, align 1, !tbaa !15
  %140 = add nuw i64 %132, 8
  %141 = icmp eq i64 %140, %129
  br i1 %141, label %142, label %131, !llvm.loop !19

142:                                              ; preds = %131
  %143 = icmp eq i64 %128, %129
  br i1 %143, label %153, label %144

144:                                              ; preds = %55, %119, %142
  %145 = phi i64 [ %41, %55 ], [ %120, %119 ], [ %130, %142 ]
  br label %146

146:                                              ; preds = %144, %146
  %147 = phi i64 [ %148, %146 ], [ %145, %144 ]
  %148 = add nsw i64 %147, 1
  %149 = getelementptr inbounds [101 x i8], [101 x i8]* %2, i64 0, i64 %148
  %150 = load i8, i8* %149, align 1, !tbaa !15
  %151 = getelementptr inbounds [101 x i8], [101 x i8]* %2, i64 0, i64 %147
  store i8 %150, i8* %151, align 1, !tbaa !15
  %152 = icmp eq i64 %148, %56
  br i1 %152, label %153, label %146, !llvm.loop !20

153:                                              ; preds = %146, %117, %142, %51, %38, %45
  %154 = phi i32 [ %40, %45 ], [ %40, %38 ], [ %54, %51 ], [ %54, %142 ], [ %54, %117 ], [ %54, %146 ]
  %155 = phi i32 [ %39, %45 ], [ %39, %38 ], [ %46, %51 ], [ %46, %142 ], [ %46, %117 ], [ %46, %146 ]
  %156 = add nsw i32 %155, 1
  %157 = icmp slt i32 %156, %154
  br i1 %157, label %38, label %33, !llvm.loop !22

158:                                              ; preds = %36, %158
  %159 = phi i64 [ 0, %36 ], [ %163, %158 ]
  %160 = getelementptr inbounds [101 x i8], [101 x i8]* %2, i64 0, i64 %159
  %161 = load i8, i8* %160, align 1, !tbaa !15
  call void @llvm.lifetime.start.p0i8(i64 1, i8* nonnull %1)
  store i8 %161, i8* %1, align 1, !tbaa !15
  %162 = call nonnull align 8 dereferenceable(8) %"class.std::basic_ostream"* @_ZSt16__ostream_insertIcSt11char_traitsIcEERSt13basic_ostreamIT_T0_ES6_PKS3_l(%"class.std::basic_ostream"* nonnull align 8 dereferenceable(8) @_ZSt4cout, i8* nonnull %1, i64 1)
  call void @llvm.lifetime.end.p0i8(i64 1, i8* nonnull %1)
  %163 = add nuw nsw i64 %159, 1
  %164 = icmp eq i64 %163, %37
  br i1 %164, label %165, label %158, !llvm.loop !23

165:                                              ; preds = %158, %33
  call void @llvm.lifetime.end.p0i8(i64 101, i8* nonnull %3) #8
  ret i32 0
}

; Function Attrs: argmemonly mustprogress nofree nosync nounwind willreturn
declare void @llvm.lifetime.start.p0i8(i64 immarg, i8* nocapture) #4

; Function Attrs: argmemonly mustprogress nofree nounwind readonly willreturn
declare i64 @strlen(i8* nocapture) local_unnamed_addr #5

; Function Attrs: argmemonly mustprogress nofree nosync nounwind willreturn
declare void @llvm.lifetime.end.p0i8(i64 immarg, i8* nocapture) #4

declare nonnull align 8 dereferenceable(16) %"class.std::basic_istream"* @_ZNSi7getlineEPclc(%"class.std::basic_istream"* nonnull align 8 dereferenceable(16), i8*, i64, i8 signext) local_unnamed_addr #0

; Function Attrs: noreturn
declare void @_ZSt16__throw_bad_castv() local_unnamed_addr #6

declare void @_ZNKSt5ctypeIcE13_M_widen_initEv(%"class.std::ctype"* nonnull align 8 dereferenceable(570)) local_unnamed_addr #0

declare nonnull align 8 dereferenceable(8) %"class.std::basic_ostream"* @_ZSt16__ostream_insertIcSt11char_traitsIcEERSt13basic_ostreamIT_T0_ES6_PKS3_l(%"class.std::basic_ostream"* nonnull align 8 dereferenceable(8), i8*, i64) local_unnamed_addr #0

; Function Attrs: sspstrong uwtable
define internal void @_GLOBAL__sub_I_629.cpp() #7 section ".text.startup" {
  tail call void @_ZNSt8ios_base4InitC1Ev(%"class.std::ios_base::Init"* nonnull align 1 dereferenceable(1) @_ZStL8__ioinit)
  %1 = tail call i32 @__cxa_atexit(void (i8*)* bitcast (void (%"class.std::ios_base::Init"*)* @_ZNSt8ios_base4InitD1Ev to void (i8*)*), i8* getelementptr inbounds (%"class.std::ios_base::Init", %"class.std::ios_base::Init"* @_ZStL8__ioinit, i64 0, i32 0), i8* nonnull @__dso_handle) #8
  ret void
}


!llvm.module.flags = !{!0, !1, !2, !3}
!llvm.ident = !{!4}

!0 = !{i32 1, !"wchar_size", i32 4}
!1 = !{i32 7, !"PIC Level", i32 2}
!2 = !{i32 7, !"PIE Level", i32 2}
!3 = !{i32 7, !"uwtable", i32 1}
!4 = !{!"clang version 13.0.0"}
!5 = !{!6, !6, i64 0}
!6 = !{!"vtable pointer", !7, i64 0}
!7 = !{!"Simple C++ TBAA"}
!8 = !{!9, !10, i64 240}
!9 = !{!"_ZTSSt9basic_iosIcSt11char_traitsIcEE", !10, i64 216, !11, i64 224, !12, i64 225, !10, i64 232, !10, i64 240, !10, i64 248, !10, i64 256}
!10 = !{!"any pointer", !11, i64 0}
!11 = !{!"omnipotent char", !7, i64 0}
!12 = !{!"bool", !11, i64 0}
!13 = !{!14, !11, i64 56}
!14 = !{!"_ZTSSt5ctypeIcE", !10, i64 16, !12, i64 24, !10, i64 32, !10, i64 40, !10, i64 48, !11, i64 56, !11, i64 57, !11, i64 313, !11, i64 569}
!15 = !{!11, !11, i64 0}
!16 = distinct !{!16, !17, !18}
!17 = !{!"llvm.loop.mustprogress"}
!18 = !{!"llvm.loop.isvectorized", i32 1}
!19 = distinct !{!19, !17, !18}
!20 = distinct !{!20, !17, !21, !18}
!21 = !{!"llvm.loop.unroll.runtime.disable"}
!22 = distinct !{!22, !17}
!23 = distinct !{!23, !17}
